target datalayout = "e-m:e-p270:32:32-p271:32:32-p272:64:64-i64:64-i128:128-f80:128-n8:16:32:64-S128"
target triple = "x86_64-pc-linux-gnu"

%"class.std::__cxx11::basic_string" = type { %"struct.std::__cxx11::basic_string<char>::_Alloc_hider", i64, %union.anon }
%"struct.std::__cxx11::basic_string<char>::_Alloc_hider" = type { ptr }
%union.anon = type { i64, [8 x i8] }
%"struct.faiss::OperatingPoints" = type { %"class.std::vector.8", %"class.std::vector.8" }
%"class.std::vector.8" = type { %"struct.std::_Vector_base.9" }
%"struct.std::_Vector_base.9" = type { %"struct.std::_Vector_base<faiss::OperatingPoint, std::allocator<faiss::OperatingPoint>>::_Vector_impl" }
%"struct.std::_Vector_base<faiss::OperatingPoint, std::allocator<faiss::OperatingPoint>>::_Vector_impl" = type { %"struct.std::_Vector_base<faiss::OperatingPoint, std::allocator<faiss::OperatingPoint>>::_Vector_impl_data" }
%"struct.std::_Vector_base<faiss::OperatingPoint, std::allocator<faiss::OperatingPoint>>::_Vector_impl_data" = type { ptr, ptr, ptr }
%"struct.faiss::OperatingPoint" = type { double, double, %"class.std::__cxx11::basic_string", i64 }

@.str.5 = private unnamed_addr constant [1 x i8] zeroinitializer, align 1
@.str.12 = private unnamed_addr constant [59 x i8] c"Tested %zd operating points, %zd ones are Pareto-optimal:\0A\00", align 1
@.str.13 = private unnamed_addr constant [2 x i8] c"*\00", align 1
@.str.14 = private unnamed_addr constant [36 x i8] c"cno=%ld key=%s perf=%.4f t=%.3f %s\0A\00", align 1

; Function Attrs: mustprogress nounwind uwtable
define linkonce_odr noundef nonnull align 8 dereferenceable(56) ptr @_ZNKSt6vectorIN5faiss14OperatingPointESaIS1_EEixEm(ptr noundef nonnull align 8 dereferenceable(24) %0, i64 noundef %1) #1 comdat align 2 {
  %3 = alloca ptr, align 8
  %4 = alloca i64, align 8
  store ptr %0, ptr %3, align 8
  store i64 %1, ptr %4, align 8
  %5 = load ptr, ptr %3, align 8
  %6 = getelementptr inbounds %"struct.std::_Vector_base.9", ptr %5, i32 0, i32 0
  %7 = getelementptr inbounds %"struct.std::_Vector_base<faiss::OperatingPoint, std::allocator<faiss::OperatingPoint>>::_Vector_impl_data", ptr %6, i32 0, i32 0
  %8 = load ptr, ptr %7, align 8
  %9 = load i64, ptr %4, align 8
  %10 = getelementptr inbounds %"struct.faiss::OperatingPoint", ptr %8, i64 %9
  ret ptr %10
}

; Function Attrs: mustprogress nounwind uwtable
define linkonce_odr noundef i64 @_ZNKSt6vectorIN5faiss14OperatingPointESaIS1_EE4sizeEv(ptr noundef nonnull align 8 dereferenceable(24) %0) #1 comdat align 2 {
  %2 = alloca ptr, align 8
  store ptr %0, ptr %2, align 8
  %3 = load ptr, ptr %2, align 8
  %4 = getelementptr inbounds %"struct.std::_Vector_base.9", ptr %3, i32 0, i32 0
  %5 = getelementptr inbounds %"struct.std::_Vector_base<faiss::OperatingPoint, std::allocator<faiss::OperatingPoint>>::_Vector_impl_data", ptr %4, i32 0, i32 1
  %6 = load ptr, ptr %5, align 8
  %7 = getelementptr inbounds %"struct.std::_Vector_base.9", ptr %3, i32 0, i32 0
  %8 = getelementptr inbounds %"struct.std::_Vector_base<faiss::OperatingPoint, std::allocator<faiss::OperatingPoint>>::_Vector_impl_data", ptr %7, i32 0, i32 0
  %9 = load ptr, ptr %8, align 8
  %10 = ptrtoint ptr %6 to i64
  %11 = ptrtoint ptr %9 to i64
  %12 = sub i64 %10, %11
  %13 = sdiv exact i64 %12, 56
  ret i64 %13
}

; Function Attrs: mustprogress uwtable
define void @_ZNK5faiss15OperatingPoints7displayEb(ptr noundef nonnull align 8 dereferenceable(48) %0, i1 noundef zeroext %1) #0 align 2 {
  %3 = alloca ptr, align 8
  %4 = alloca i8, align 1
  %5 = alloca ptr, align 8
  %6 = alloca i32, align 4
  %7 = alloca ptr, align 8
  %8 = alloca ptr, align 8
  %9 = alloca i32, align 4
  store ptr %0, ptr %3, align 8
  %10 = zext i1 %1 to i8
  store i8 %10, ptr %4, align 1
  %11 = load ptr, ptr %3, align 8
  %12 = load i8, ptr %4, align 1
  %13 = trunc i8 %12 to i1
  br i1 %13, label %14, label %16

14:                                               ; preds = %2
  %15 = getelementptr inbounds %"struct.faiss::OperatingPoints", ptr %11, i32 0, i32 1
  br label %18

16:                                               ; preds = %2
  %17 = getelementptr inbounds %"struct.faiss::OperatingPoints", ptr %11, i32 0, i32 0
  br label %18

18:                                               ; preds = %16, %14
  %19 = phi ptr [ %15, %14 ], [ %17, %16 ]
  store ptr %19, ptr %5, align 8
  %20 = getelementptr inbounds %"struct.faiss::OperatingPoints", ptr %11, i32 0, i32 0
  %21 = call noundef i64 @_ZNKSt6vectorIN5faiss14OperatingPointESaIS1_EE4sizeEv(ptr noundef nonnull align 8 dereferenceable(24) %20) #5
  %22 = getelementptr inbounds %"struct.faiss::OperatingPoints", ptr %11, i32 0, i32 1
  %23 = call noundef i64 @_ZNKSt6vectorIN5faiss14OperatingPointESaIS1_EE4sizeEv(ptr noundef nonnull align 8 dereferenceable(24) %22) #5
  %24 = call i32 (ptr, ...) @printf(ptr noundef @.str.12, i64 noundef %21, i64 noundef %23)
  store i32 0, ptr %6, align 4
  br label %25

25:                                               ; preds = %77, %18
  %26 = load i32, ptr %6, align 4
  %27 = sext i32 %26 to i64
  %28 = load ptr, ptr %5, align 8
  %29 = call noundef i64 @_ZNKSt6vectorIN5faiss14OperatingPointESaIS1_EE4sizeEv(ptr noundef nonnull align 8 dereferenceable(24) %28) #5
  %30 = icmp ult i64 %27, %29
  br i1 %30, label %31, label %80

31:                                               ; preds = %25
  %32 = load ptr, ptr %5, align 8
  %33 = load i32, ptr %6, align 4
  %34 = sext i32 %33 to i64
  %35 = call noundef nonnull align 8 dereferenceable(56) ptr @_ZNKSt6vectorIN5faiss14OperatingPointESaIS1_EEixEm(ptr noundef nonnull align 8 dereferenceable(24) %32, i64 noundef %34) #5
  store ptr %35, ptr %7, align 8
  store ptr @.str.5, ptr %8, align 8
  %36 = load i8, ptr %4, align 1
  %37 = trunc i8 %36 to i1
  br i1 %37, label %62, label %38

38:                                               ; preds = %31
  store i32 0, ptr %9, align 4
  br label %39

39:                                               ; preds = %58, %38
  %40 = load i32, ptr %9, align 4
  %41 = sext i32 %40 to i64
  %42 = getelementptr inbounds %"struct.faiss::OperatingPoints", ptr %11, i32 0, i32 1
  %43 = call noundef i64 @_ZNKSt6vectorIN5faiss14OperatingPointESaIS1_EE4sizeEv(ptr noundef nonnull align 8 dereferenceable(24) %42) #5
  %44 = icmp ult i64 %41, %43
  br i1 %44, label %45, label %61

45:                                               ; preds = %39
  %46 = load ptr, ptr %7, align 8
  %47 = getelementptr inbounds %"struct.faiss::OperatingPoint", ptr %46, i32 0, i32 3
  %48 = load i64, ptr %47, align 8
  %49 = getelementptr inbounds %"struct.faiss::OperatingPoints", ptr %11, i32 0, i32 1
  %50 = load i32, ptr %9, align 4
  %51 = sext i32 %50 to i64
  %52 = call noundef nonnull align 8 dereferenceable(56) ptr @_ZNKSt6vectorIN5faiss14OperatingPointESaIS1_EEixEm(ptr noundef nonnull align 8 dereferenceable(24) %49, i64 noundef %51) #5
  %53 = getelementptr inbounds %"struct.faiss::OperatingPoint", ptr %52, i32 0, i32 3
  %54 = load i64, ptr %53, align 8
  %55 = icmp eq i64 %48, %54
  br i1 %55, label %56, label %57

56:                                               ; preds = %45
  store ptr @.str.13, ptr %8, align 8
  br label %61

57:                                               ; preds = %45
  br label %58

58:                                               ; preds = %57
  %59 = load i32, ptr %9, align 4
  %60 = add nsw i32 %59, 1
  store i32 %60, ptr %9, align 4
  br label %39, !llvm.loop !27

61:                                               ; preds = %56, %39
  br label %62

62:                                               ; preds = %61, %31
  %63 = load ptr, ptr %7, align 8
  %64 = getelementptr inbounds %"struct.faiss::OperatingPoint", ptr %63, i32 0, i32 3
  %65 = load i64, ptr %64, align 8
  %66 = load ptr, ptr %7, align 8
  %67 = getelementptr inbounds %"struct.faiss::OperatingPoint", ptr %66, i32 0, i32 2
  %68 = call noundef ptr @_ZNKSt7__cxx1112basic_stringIcSt11char_traitsIcESaIcEE5c_strEv(ptr noundef nonnull align 8 dereferenceable(32) %67) #5
  %69 = load ptr, ptr %7, align 8
  %70 = getelementptr inbounds %"struct.faiss::OperatingPoint", ptr %69, i32 0, i32 0
  %71 = load double, ptr %70, align 8
  %72 = load ptr, ptr %7, align 8
  %73 = getelementptr inbounds %"struct.faiss::OperatingPoint", ptr %72, i32 0, i32 1
  %74 = load double, ptr %73, align 8
  %75 = load ptr, ptr %8, align 8
  %76 = call i32 (ptr, ...) @printf(ptr noundef @.str.14, i64 noundef %65, ptr noundef %68, double noundef %71, double noundef %74, ptr noundef %75)
  br label %77

77:                                               ; preds = %62
  %78 = load i32, ptr %6, align 4
  %79 = add nsw i32 %78, 1
  store i32 %79, ptr %6, align 4
  br label %25, !llvm.loop !28

80:                                               ; preds = %25
  ret void
}