; Function Attrs: mustprogress nounwind uwtable
define void @_ZNK5faiss15OperatingPoints7displayEb(ptr nocapture noundef nonnull readonly align 8 dereferenceable(48) %0, i1 noundef zeroext %1) local_unnamed_addr #1 align 2 {
  %3 = getelementptr inbounds i8, ptr %0, i64 24
  %4 = select i1 %1, ptr %3, ptr %0
  %5 = getelementptr inbounds i8, ptr %0, i64 8
  %6 = load ptr, ptr %5, align 8
  %7 = load ptr, ptr %0, align 8
  %8 = ptrtoint ptr %6 to i64
  %9 = ptrtoint ptr %7 to i64
  %10 = sub i64 %8, %9
  %11 = sdiv exact i64 %10, 56
  %12 = getelementptr inbounds i8, ptr %0, i64 32
  %13 = load ptr, ptr %12, align 8
  %14 = load ptr, ptr %3, align 8
  %15 = ptrtoint ptr %13 to i64
  %16 = ptrtoint ptr %14 to i64
  %17 = sub i64 %15, %16
  %18 = sdiv exact i64 %17, 56
  %19 = tail call i32 (ptr, ...) @printf(ptr noundef nonnull dereferenceable(1) @.str.12, i64 noundef %11, i64 noundef %18)
  %20 = getelementptr inbounds i8, ptr %4, i64 8
  %21 = load ptr, ptr %20, align 8
  %22 = load ptr, ptr %4, align 8
  %.not = icmp eq ptr %21, %22
  br i1 %.not, label %._crit_edge, label %.lr.ph24

.lr.ph24:                                         ; preds = %2
  br i1 %1, label %.lr.ph24.split.us, label %.preheader

.lr.ph24.split.us:                                ; preds = %.lr.ph24, %.lr.ph24.split.us
  %indvars.iv31 = phi i64 [ %indvars.iv.next32, %.lr.ph24.split.us ], [ 0, %.lr.ph24 ]
  %23 = phi ptr [ %34, %.lr.ph24.split.us ], [ %22, %.lr.ph24 ]
  %24 = getelementptr inbounds %"struct.faiss::OperatingPoint", ptr %23, i64 %indvars.iv31
  %25 = getelementptr inbounds i8, ptr %24, i64 48
  %26 = load i64, ptr %25, align 8
  %27 = getelementptr inbounds i8, ptr %24, i64 16
  %28 = tail call noundef ptr @_ZNKSt7__cxx1112basic_stringIcSt11char_traitsIcESaIcEE5c_strEv(ptr noundef nonnull align 8 dereferenceable(32) %27) #14
  %29 = load double, ptr %24, align 8
  %30 = getelementptr inbounds i8, ptr %24, i64 8
  %31 = load double, ptr %30, align 8
  %32 = tail call i32 (ptr, ...) @printf(ptr noundef nonnull dereferenceable(1) @.str.14, i64 noundef %26, ptr noundef %28, double noundef %29, double noundef %31, ptr noundef nonnull @.str.5)
  %indvars.iv.next32 = add nuw nsw i64 %indvars.iv31, 1
  %33 = load ptr, ptr %20, align 8
  %34 = load ptr, ptr %4, align 8
  %35 = ptrtoint ptr %33 to i64
  %36 = ptrtoint ptr %34 to i64
  %37 = sub i64 %35, %36
  %38 = sdiv exact i64 %37, 56
  %39 = icmp ugt i64 %38, %indvars.iv.next32
  br i1 %39, label %.lr.ph24.split.us, label %._crit_edge, !llvm.loop !38

.preheader:                                       ; preds = %.lr.ph24, %.loopexit
  %indvars.iv28 = phi i64 [ %indvars.iv.next29, %.loopexit ], [ 0, %.lr.ph24 ]
  %40 = phi ptr [ %63, %.loopexit ], [ %22, %.lr.ph24 ]
  %41 = getelementptr inbounds %"struct.faiss::OperatingPoint", ptr %40, i64 %indvars.iv28
  %42 = load ptr, ptr %12, align 8
  %43 = load ptr, ptr %3, align 8
  %.not25 = icmp eq ptr %42, %43
  br i1 %.not25, label %.preheader..loopexit_crit_edge, label %.lr.ph

.preheader..loopexit_crit_edge:                   ; preds = %.preheader
  %.phi.trans.insert = getelementptr inbounds i8, ptr %41, i64 48
  %.pre = load i64, ptr %.phi.trans.insert, align 8
  br label %.loopexit

.lr.ph:                                           ; preds = %.preheader
  %44 = ptrtoint ptr %42 to i64
  %45 = ptrtoint ptr %43 to i64
  %46 = sub i64 %44, %45
  %47 = sdiv exact i64 %46, 56
  %48 = getelementptr inbounds i8, ptr %41, i64 48
  %49 = load i64, ptr %48, align 8
  %umax = tail call i64 @llvm.umax.i64(i64 %47, i64 1)
  br label %51

50:                                               ; preds = %51
  %indvars.iv.next = add nuw i64 %indvars.iv, 1
  %exitcond.not = icmp eq i64 %indvars.iv.next, %umax
  br i1 %exitcond.not, label %.loopexit, label %51, !llvm.loop !39

51:                                               ; preds = %.lr.ph, %50
  %indvars.iv = phi i64 [ 0, %.lr.ph ], [ %indvars.iv.next, %50 ]
  %52 = getelementptr inbounds %"struct.faiss::OperatingPoint", ptr %43, i64 %indvars.iv, i32 3
  %53 = load i64, ptr %52, align 8
  %54 = icmp eq i64 %49, %53
  br i1 %54, label %.loopexit, label %50

.loopexit:                                        ; preds = %51, %50, %.preheader..loopexit_crit_edge
  %55 = phi i64 [ %.pre, %.preheader..loopexit_crit_edge ], [ %49, %50 ], [ %49, %51 ]
  %.016.ph = phi ptr [ @.str.5, %.preheader..loopexit_crit_edge ], [ @.str.13, %51 ], [ @.str.5, %50 ]
  %56 = getelementptr inbounds i8, ptr %41, i64 16
  %57 = tail call noundef ptr @_ZNKSt7__cxx1112basic_stringIcSt11char_traitsIcESaIcEE5c_strEv(ptr noundef nonnull align 8 dereferenceable(32) %56) #14
  %58 = load double, ptr %41, align 8
  %59 = getelementptr inbounds i8, ptr %41, i64 8
  %60 = load double, ptr %59, align 8
  %61 = tail call i32 (ptr, ...) @printf(ptr noundef nonnull dereferenceable(1) @.str.14, i64 noundef %55, ptr noundef %57, double noundef %58, double noundef %60, ptr noundef nonnull %.016.ph)
  %indvars.iv.next29 = add nuw nsw i64 %indvars.iv28, 1
  %62 = load ptr, ptr %20, align 8
  %63 = load ptr, ptr %4, align 8
  %64 = ptrtoint ptr %62 to i64
  %65 = ptrtoint ptr %63 to i64
  %66 = sub i64 %64, %65
  %67 = sdiv exact i64 %66, 56
  %68 = icmp ugt i64 %67, %indvars.iv.next29
  br i1 %68, label %.preheader, label %._crit_edge, !llvm.loop !38

._crit_edge:                                      ; preds = %.loopexit, %.lr.ph24.split.us, %2
  ret void
}